target datalayout = "e-m:e-p270:32:32-p271:32:32-p272:64:64-i64:64-i128:128-f80:128-n8:16:32:64-S128"
target triple = "x86_64-pc-linux-gnu"

%struct.stat = type { i64, i64, i64, i32, i32, i32, i32, i64, i64, i64, i64, %struct.timespec, %struct.timespec, %struct.timespec, [3 x i64] }
%struct.timespec = type { i64, i64 }
%struct.dirent = type { i64, i64, i16, i8, [256 x i8] }

@.str.6 = private unnamed_addr constant [16 x i8] c"reorderbuffer.c\00", align 1
@.str.8 = private unnamed_addr constant [12 x i8] c"pg_replslot\00", align 1
@.str.34 = private unnamed_addr constant [6 x i8] c"%s/%s\00", align 1
@.str.35 = private unnamed_addr constant [4 x i8] c"xid\00", align 1
@.str.36 = private unnamed_addr constant [9 x i8] c"%s/%s/%s\00", align 1
@.str.37 = private unnamed_addr constant [60 x i8] c"could not remove file \22%s\22 during removal of %s/%s/xid*: %m\00", align 1
@__func__.ReorderBufferCleanupSerializedTXNs = private unnamed_addr constant [35 x i8] c"ReorderBufferCleanupSerializedTXNs\00", align 1

; Function Attrs: nounwind uwtable
define internal void @ReorderBufferCleanupSerializedTXNs(ptr noundef %0) #0 {
  %2 = alloca ptr, align 8
  %3 = alloca ptr, align 8
  %4 = alloca ptr, align 8
  %5 = alloca %struct.stat, align 8
  %6 = alloca [2060 x i8], align 16
  %7 = alloca i32, align 4
  store ptr %0, ptr %2, align 8
  call void @llvm.lifetime.start.p0(i64 8, ptr %3) #13
  call void @llvm.lifetime.start.p0(i64 8, ptr %4) #13
  call void @llvm.lifetime.start.p0(i64 144, ptr %5) #13
  call void @llvm.lifetime.start.p0(i64 2060, ptr %6) #13
  %8 = getelementptr inbounds [2060 x i8], ptr %6, i64 0, i64 0
  %9 = load ptr, ptr %2, align 8
  %10 = call i32 (ptr, ptr, ...) @pg_sprintf(ptr noundef %8, ptr noundef @.str.34, ptr noundef @.str.8, ptr noundef %9)
  %11 = getelementptr inbounds [2060 x i8], ptr %6, i64 0, i64 0
  %12 = call i32 @lstat(ptr noundef %11, ptr noundef %5) #13
  %13 = icmp eq i32 %12, 0
  br i1 %13, label %14, label %20

14:                                               ; preds = %1
  %15 = getelementptr inbounds nuw %struct.stat, ptr %5, i32 0, i32 3
  %16 = load i32, ptr %15, align 8
  %17 = and i32 %16, 61440
  %18 = icmp eq i32 %17, 16384
  br i1 %18, label %20, label %19

19:                                               ; preds = %14
  store i32 1, ptr %7, align 4
  br label %63

20:                                               ; preds = %14, %1
  %21 = getelementptr inbounds [2060 x i8], ptr %6, i64 0, i64 0
  %22 = call ptr @AllocateDir(ptr noundef %21)
  store ptr %22, ptr %3, align 8
  br label %23

23:                                               ; preds = %59, %20
  %24 = load ptr, ptr %3, align 8
  %25 = getelementptr inbounds [2060 x i8], ptr %6, i64 0, i64 0
  %26 = call ptr @ReadDirExtended(ptr noundef %24, ptr noundef %25, i32 noundef 17)
  store ptr %26, ptr %4, align 8
  %27 = icmp ne ptr %26, null
  br i1 %27, label %28, label %60

28:                                               ; preds = %23
  %29 = load ptr, ptr %4, align 8
  %30 = getelementptr inbounds nuw %struct.dirent, ptr %29, i32 0, i32 4
  %31 = getelementptr inbounds [256 x i8], ptr %30, i64 0, i64 0
  %32 = call i32 @strncmp(ptr noundef %31, ptr noundef @.str.35, i64 noundef 3) #14
  %33 = icmp eq i32 %32, 0
  br i1 %33, label %34, label %59

34:                                               ; preds = %28
  %35 = getelementptr inbounds [2060 x i8], ptr %6, i64 0, i64 0
  %36 = load ptr, ptr %2, align 8
  %37 = load ptr, ptr %4, align 8
  %38 = getelementptr inbounds nuw %struct.dirent, ptr %37, i32 0, i32 4
  %39 = getelementptr inbounds [256 x i8], ptr %38, i64 0, i64 0
  %40 = call i32 (ptr, i64, ptr, ...) @pg_snprintf(ptr noundef %35, i64 noundef 2060, ptr noundef @.str.36, ptr noundef @.str.8, ptr noundef %36, ptr noundef %39)
  %41 = getelementptr inbounds [2060 x i8], ptr %6, i64 0, i64 0
  %42 = call i32 @unlink(ptr noundef %41) #13
  %43 = icmp ne i32 %42, 0
  br i1 %43, label %44, label %58

44:                                               ; preds = %34
  br label %45

45:                                               ; preds = %44
  br i1 true, label %46, label %48

46:                                               ; preds = %45
  %47 = call zeroext i1 @errstart_cold(i32 noundef 21, ptr noundef null) #15
  br i1 %47, label %50, label %55

48:                                               ; preds = %45
  %49 = call zeroext i1 @errstart(i32 noundef 21, ptr noundef null)
  br i1 %49, label %50, label %55

50:                                               ; preds = %48, %46
  %51 = call i32 @errcode_for_file_access()
  %52 = getelementptr inbounds [2060 x i8], ptr %6, i64 0, i64 0
  %53 = load ptr, ptr %2, align 8
  %54 = call i32 (ptr, ...) @errmsg(ptr noundef @.str.37, ptr noundef %52, ptr noundef @.str.8, ptr noundef %53)
  call void @errfinish(ptr noundef @.str.6, i32 noundef 4748, ptr noundef @__func__.ReorderBufferCleanupSerializedTXNs)
  br label %55

55:                                               ; preds = %50, %48, %46
  unreachable

56:                                               ; No predecessors!
  br label %57

57:                                               ; preds = %56
  br label %58

58:                                               ; preds = %57, %34
  br label %59

59:                                               ; preds = %58, %28
  br label %23, !llvm.loop !4

60:                                               ; preds = %23
  %61 = load ptr, ptr %3, align 8
  %62 = call i32 @FreeDir(ptr noundef %61)
  store i32 0, ptr %7, align 4
  br label %63

63:                                               ; preds = %60, %19
  call void @llvm.lifetime.end.p0(i64 2060, ptr %6) #13
  call void @llvm.lifetime.end.p0(i64 144, ptr %5) #13
  call void @llvm.lifetime.end.p0(i64 8, ptr %4) #13
  call void @llvm.lifetime.end.p0(i64 8, ptr %3) #13
  %64 = load i32, ptr %7, align 4
  switch i32 %64, label %66 [
    i32 0, label %65
    i32 1, label %65
  ]

65:                                               ; preds = %63, %63
  ret void

66:                                               ; preds = %63
  unreachable
}