; Function Attrs: nounwind uwtable
define internal fastcc void @ReorderBufferCleanupSerializedTXNs(ptr noundef %0) unnamed_addr #0 {
  %2 = alloca %struct.stat, align 8
  %3 = alloca [2060 x i8], align 16
  call void @llvm.lifetime.start.p0(i64 144, ptr nonnull %2) #19
  call void @llvm.lifetime.start.p0(i64 2060, ptr nonnull %3) #19
  %4 = call i32 (ptr, ptr, ...) @pg_sprintf(ptr noundef nonnull %3, ptr noundef nonnull @.str.34, ptr noundef nonnull @.str.8, ptr noundef %0) #19
  %5 = call i32 @lstat(ptr noundef nonnull %3, ptr noundef nonnull %2) #19
  %6 = icmp eq i32 %5, 0
  br i1 %6, label %7, label %12

7:                                                ; preds = %1
  %8 = getelementptr inbounds nuw i8, ptr %2, i64 24
  %9 = load i32, ptr %8, align 8
  %10 = and i32 %9, 61440
  %11 = icmp eq i32 %10, 16384
  br i1 %11, label %12, label %32

12:                                               ; preds = %7, %1
  %13 = call ptr @AllocateDir(ptr noundef nonnull %3) #19
  %14 = call ptr @ReadDirExtended(ptr noundef %13, ptr noundef nonnull %3, i32 noundef 17) #19
  %.not8 = icmp eq ptr %14, null
  br i1 %.not8, label %._crit_edge, label %sub_0

sub_0:                                            ; preds = %12, %.tail.thread
  %15 = phi ptr [ %30, %.tail.thread ], [ %14, %12 ]
  %16 = getelementptr inbounds nuw i8, ptr %15, i64 19
  %17 = load i8, ptr %16, align 1
  %.not9 = icmp eq i8 %17, 120
  br i1 %.not9, label %sub_1, label %.tail.thread

sub_1:                                            ; preds = %sub_0
  %18 = getelementptr inbounds nuw i8, ptr %15, i64 20
  %19 = load i8, ptr %18, align 1
  %.not10 = icmp eq i8 %19, 105
  br i1 %.not10, label %.tail, label %.tail.thread

.tail:                                            ; preds = %sub_1
  %20 = getelementptr inbounds nuw i8, ptr %15, i64 21
  %21 = load i8, ptr %20, align 1
  %22 = icmp eq i8 %21, 100
  br i1 %22, label %23, label %.tail.thread

23:                                               ; preds = %.tail
  %24 = call i32 (ptr, i64, ptr, ...) @pg_snprintf(ptr noundef nonnull %3, i64 noundef 2060, ptr noundef nonnull @.str.36, ptr noundef nonnull @.str.8, ptr noundef %0, ptr noundef nonnull %16) #19
  %25 = call i32 @unlink(ptr noundef nonnull %3) #19
  %.not7 = icmp eq i32 %25, 0
  br i1 %.not7, label %.tail.thread, label %26

26:                                               ; preds = %23
  %27 = call zeroext i1 @errstart_cold(i32 noundef 21, ptr noundef null) #20
  call void @llvm.assume(i1 %27)
  %28 = call i32 @errcode_for_file_access() #19
  %29 = call i32 (ptr, ...) @errmsg(ptr noundef nonnull @.str.37, ptr noundef nonnull %3, ptr noundef nonnull @.str.8, ptr noundef %0) #19
  call void @errfinish(ptr noundef nonnull @.str.6, i32 noundef 4748, ptr noundef nonnull @__func__.ReorderBufferCleanupSerializedTXNs) #19
  unreachable

.tail.thread:                                     ; preds = %sub_1, %sub_0, %23, %.tail
  %30 = call ptr @ReadDirExtended(ptr noundef %13, ptr noundef nonnull %3, i32 noundef 17) #19
  %.not = icmp eq ptr %30, null
  br i1 %.not, label %._crit_edge, label %sub_0, !llvm.loop !4

._crit_edge:                                      ; preds = %.tail.thread, %12
  %31 = call i32 @FreeDir(ptr noundef %13) #19
  br label %32

32:                                               ; preds = %7, %._crit_edge
  call void @llvm.lifetime.end.p0(i64 2060, ptr nonnull %3) #19
  call void @llvm.lifetime.end.p0(i64 144, ptr nonnull %2) #19
  ret void
}